target datalayout = "e-m:e-p270:32:32-p271:32:32-p272:64:64-i64:64-i128:128-f80:128-n8:16:32:64-S128"
target triple = "x86_64-pc-linux-gnu"

%"class.icu_77::FormattedRelativeDateTime" = type <{ %"class.icu_77::FormattedValue", ptr, i32, [4 x i8] }>
%"class.icu_77::FormattedValue" = type { ptr }
%"class.icu_77::UFormattedRelativeDateTimeImpl" = type { %"struct.icu_77::UFormattedValueImpl", %"class.icu_77::IcuCApiHelper.12", [4 x i8], %"class.icu_77::FormattedRelativeDateTime" }
%"struct.icu_77::UFormattedValueImpl" = type { %"class.icu_77::IcuCApiHelper", ptr }
%"class.icu_77::IcuCApiHelper" = type { i32 }
%"class.icu_77::IcuCApiHelper.12" = type { i32 }

; Function Attrs: inlinehint mustprogress nounwind uwtable
define linkonce_odr void @_ZN6icu_7714FormattedValueC2Ev(ptr noundef nonnull align 8 dereferenceable(8) %0) unnamed_addr #2 comdat align 2 {
  %2 = alloca ptr, align 8
  store ptr %0, ptr %2, align 8, !tbaa !88
  %3 = load ptr, ptr %2, align 8
  store ptr getelementptr inbounds inrange(-16, 48) ({ [8 x ptr] }, ptr @_ZTVN6icu_7714FormattedValueE, i32 0, i32 0, i32 2), ptr %3, align 8, !tbaa !25
  ret void
}

; Function Attrs: inlinehint mustprogress nounwind uwtable
define linkonce_odr void @_ZN6icu_7713IcuCApiHelperI15UFormattedValueNS_19UFormattedValueImplELi1430672896EEC2Ev(ptr noundef nonnull align 4 dereferenceable(4) %0) unnamed_addr #2 comdat align 2 {
  %2 = alloca ptr, align 8
  store ptr %0, ptr %2, align 8, !tbaa !181
  %3 = load ptr, ptr %2, align 8
  %4 = getelementptr inbounds nuw %"class.icu_77::IcuCApiHelper", ptr %3, i32 0, i32 0
  store i32 1430672896, ptr %4, align 4, !tbaa !183
  ret void
}

; Function Attrs: mustprogress nounwind uwtable
define linkonce_odr void @_ZN6icu_7713IcuCApiHelperI15UFormattedValueNS_19UFormattedValueImplELi1430672896EED2Ev(ptr noundef nonnull align 4 dereferenceable(4) %0) unnamed_addr #0 comdat align 2 {
  %2 = alloca ptr, align 8
  store ptr %0, ptr %2, align 8, !tbaa !181
  %3 = load ptr, ptr %2, align 8
  %4 = getelementptr inbounds nuw %"class.icu_77::IcuCApiHelper", ptr %3, i32 0, i32 0
  store i32 0, ptr %4, align 4, !tbaa !183
  ret void
}

; Function Attrs: mustprogress nounwind uwtable
define linkonce_odr void @_ZN6icu_7713IcuCApiHelperI26UFormattedRelativeDateTimeNS_30UFormattedRelativeDateTimeImplELi1179796564EED2Ev(ptr noundef nonnull align 4 dereferenceable(4) %0) unnamed_addr #0 comdat align 2 {
  %2 = alloca ptr, align 8
  store ptr %0, ptr %2, align 8, !tbaa !177
  %3 = load ptr, ptr %2, align 8
  %4 = getelementptr inbounds nuw %"class.icu_77::IcuCApiHelper.12", ptr %3, i32 0, i32 0
  store i32 0, ptr %4, align 4, !tbaa !179
  ret void
}

; Function Attrs: mustprogress nounwind uwtable
define linkonce_odr void @_ZN6icu_7725FormattedRelativeDateTimeC2Ev(ptr noundef nonnull align 8 dereferenceable(20) %0) unnamed_addr #0 comdat align 2 {
  %2 = alloca ptr, align 8
  store ptr %0, ptr %2, align 8, !tbaa !82
  %3 = load ptr, ptr %2, align 8
  call void @_ZN6icu_7714FormattedValueC2Ev(ptr noundef nonnull align 8 dereferenceable(8) %3) #12
  store ptr getelementptr inbounds inrange(-16, 48) ({ [8 x ptr] }, ptr @_ZTVN6icu_7725FormattedRelativeDateTimeE, i32 0, i32 0, i32 2), ptr %3, align 8, !tbaa !25
  %4 = getelementptr inbounds nuw %"class.icu_77::FormattedRelativeDateTime", ptr %3, i32 0, i32 1
  store ptr null, ptr %4, align 8, !tbaa !84
  %5 = getelementptr inbounds nuw %"class.icu_77::FormattedRelativeDateTime", ptr %3, i32 0, i32 2
  store i32 27, ptr %5, align 8, !tbaa !87
  ret void
}

; Function Attrs: inlinehint mustprogress nounwind uwtable
define linkonce_odr void @_ZN6icu_7713IcuCApiHelperI26UFormattedRelativeDateTimeNS_30UFormattedRelativeDateTimeImplELi1179796564EEC2Ev(ptr noundef nonnull align 4 dereferenceable(4) %0) unnamed_addr #2 comdat align 2 {
  %2 = alloca ptr, align 8
  store ptr %0, ptr %2, align 8, !tbaa !177
  %3 = load ptr, ptr %2, align 8
  %4 = getelementptr inbounds nuw %"class.icu_77::IcuCApiHelper.12", ptr %3, i32 0, i32 0
  store i32 1179796564, ptr %4, align 4, !tbaa !179
  ret void
}

; Function Attrs: inlinehint mustprogress nounwind uwtable
define linkonce_odr void @_ZN6icu_7719UFormattedValueImplC2Ev(ptr noundef nonnull align 8 dereferenceable(16) %0) unnamed_addr #2 comdat align 2 {
  %2 = alloca ptr, align 8
  store ptr %0, ptr %2, align 8, !tbaa !175
  %3 = load ptr, ptr %2, align 8
  call void @_ZN6icu_7713IcuCApiHelperI15UFormattedValueNS_19UFormattedValueImplELi1430672896EEC2Ev(ptr noundef nonnull align 4 dereferenceable(4) %3) #12
  %4 = getelementptr inbounds nuw %"struct.icu_77::UFormattedValueImpl", ptr %3, i32 0, i32 1
  store ptr null, ptr %4, align 8, !tbaa !172
  ret void
}

; Function Attrs: mustprogress uwtable
define void @_ZN6icu_7730UFormattedRelativeDateTimeImplC2Ev(ptr noundef nonnull align 8 dereferenceable(48) %0) unnamed_addr #1 align 2 personality ptr @__gxx_personality_v0 {
  %2 = alloca ptr, align 8
  %3 = alloca ptr, align 8
  %4 = alloca i32, align 4
  store ptr %0, ptr %2, align 8, !tbaa !170
  %5 = load ptr, ptr %2, align 8
  call void @_ZN6icu_7719UFormattedValueImplC2Ev(ptr noundef nonnull align 8 dereferenceable(16) %5) #12
  %6 = getelementptr inbounds i8, ptr %5, i64 16
  call void @_ZN6icu_7713IcuCApiHelperI26UFormattedRelativeDateTimeNS_30UFormattedRelativeDateTimeImplELi1179796564EEC2Ev(ptr noundef nonnull align 4 dereferenceable(4) %6) #12
  %7 = getelementptr inbounds nuw %"class.icu_77::UFormattedRelativeDateTimeImpl", ptr %5, i32 0, i32 3
  invoke void @_ZN6icu_7725FormattedRelativeDateTimeC2Ev(ptr noundef nonnull align 8 dereferenceable(20) %7)
          to label %8 unwind label %11

8:                                                ; preds = %1
  %9 = getelementptr inbounds nuw %"class.icu_77::UFormattedRelativeDateTimeImpl", ptr %5, i32 0, i32 3
  %10 = getelementptr inbounds nuw %"struct.icu_77::UFormattedValueImpl", ptr %5, i32 0, i32 1
  store ptr %9, ptr %10, align 8, !tbaa !172
  ret void

11:                                               ; preds = %1
  %12 = landingpad { ptr, i32 }
          cleanup
  %13 = extractvalue { ptr, i32 } %12, 0
  store ptr %13, ptr %3, align 8
  %14 = extractvalue { ptr, i32 } %12, 1
  store i32 %14, ptr %4, align 4
  %15 = getelementptr inbounds i8, ptr %5, i64 16
  call void @_ZN6icu_7713IcuCApiHelperI26UFormattedRelativeDateTimeNS_30UFormattedRelativeDateTimeImplELi1179796564EED2Ev(ptr noundef nonnull align 4 dereferenceable(4) %15) #12
  call void @_ZN6icu_7713IcuCApiHelperI15UFormattedValueNS_19UFormattedValueImplELi1430672896EED2Ev(ptr noundef nonnull align 8 dereferenceable(16) %5) #12
  br label %16

16:                                               ; preds = %11
  %17 = load ptr, ptr %3, align 8
  %18 = load i32, ptr %4, align 4
  %19 = insertvalue { ptr, i32 } poison, ptr %17, 0
  %20 = insertvalue { ptr, i32 } %19, i32 %18, 1
  resume { ptr, i32 } %20
}